target datalayout = "e-m:e-p270:32:32-p271:32:32-p272:64:64-i64:64-i128:128-f80:128-n8:16:32:64-S128"
target triple = "x86_64-pc-linux-gnu"

%struct.gennamedata = type { [22 x i8], i64 }

@.str.2 = private unnamed_addr constant [29 x i8] c"../openssl/test/v3nametest.c\00", align 1
@.str.67 = private unnamed_addr constant [2 x i8] c"0\00", align 1
@.str.112 = private unnamed_addr constant [7 x i8] c"namesa\00", align 1
@.str.113 = private unnamed_addr constant [7 x i8] c"namesb\00", align 1
@.str.114 = private unnamed_addr constant [10 x i8] c"namesa[i]\00", align 1
@.str.115 = private unnamed_addr constant [10 x i8] c"namesb[i]\00", align 1
@.str.116 = private unnamed_addr constant [39 x i8] c"GENERAL_NAME_cmp(namesa[i], namesb[j])\00", align 1

; Function Attrs: nounwind uwtable
define internal i32 @test_GENERAL_NAME_cmp() #0 {
  %1 = alloca i32, align 4
  %2 = alloca i64, align 8
  %3 = alloca i64, align 8
  %4 = alloca ptr, align 8
  %5 = alloca ptr, align 8
  %6 = alloca i32, align 4
  %7 = alloca ptr, align 8
  %8 = alloca i32, align 4
  call void @llvm.lifetime.start.p0(i64 8, ptr %2) #8
  call void @llvm.lifetime.start.p0(i64 8, ptr %3) #8
  call void @llvm.lifetime.start.p0(i64 8, ptr %4) #8
  %9 = call noalias ptr @CRYPTO_malloc(i64 noundef 216, ptr noundef @.str.2, i32 noundef 663)
  store ptr %9, ptr %4, align 8, !tbaa !22
  call void @llvm.lifetime.start.p0(i64 8, ptr %5) #8
  %10 = call noalias ptr @CRYPTO_malloc(i64 noundef 216, ptr noundef @.str.2, i32 noundef 665)
  store ptr %10, ptr %5, align 8, !tbaa !22
  call void @llvm.lifetime.start.p0(i64 4, ptr %6) #8
  store i32 0, ptr %6, align 4, !tbaa !4
  %11 = load ptr, ptr %4, align 8, !tbaa !22
  %12 = call i32 @test_ptr(ptr noundef @.str.2, i32 noundef 668, ptr noundef @.str.112, ptr noundef %11)
  %13 = icmp ne i32 %12, 0
  br i1 %13, label %14, label %18

14:                                               ; preds = %0
  %15 = load ptr, ptr %5, align 8, !tbaa !22
  %16 = call i32 @test_ptr(ptr noundef @.str.2, i32 noundef 668, ptr noundef @.str.113, ptr noundef %15)
  %17 = icmp ne i32 %16, 0
  br i1 %17, label %19, label %18

18:                                               ; preds = %14, %0
  br label %118

19:                                               ; preds = %14
  store i64 0, ptr %2, align 8, !tbaa !24
  br label %20

20:                                               ; preds = %66, %19
  %21 = load i64, ptr %2, align 8, !tbaa !24
  %22 = icmp ult i64 %21, 27
  br i1 %22, label %23, label %69

23:                                               ; preds = %20
  call void @llvm.lifetime.start.p0(i64 8, ptr %7) #8
  %24 = load i64, ptr %2, align 8, !tbaa !24
  %25 = getelementptr inbounds nuw [27 x %struct.gennamedata], ptr @gennames, i64 0, i64 %24
  %26 = getelementptr inbounds nuw %struct.gennamedata, ptr %25, i32 0, i32 0
  %27 = getelementptr inbounds [22 x i8], ptr %26, i64 0, i64 0
  store ptr %27, ptr %7, align 8, !tbaa !16
  %28 = load i64, ptr %2, align 8, !tbaa !24
  %29 = getelementptr inbounds nuw [27 x %struct.gennamedata], ptr @gennames, i64 0, i64 %28
  %30 = getelementptr inbounds nuw %struct.gennamedata, ptr %29, i32 0, i32 1
  %31 = load i64, ptr %30, align 8, !tbaa !26
  %32 = call ptr @d2i_GENERAL_NAME(ptr noundef null, ptr noundef %7, i64 noundef %31)
  %33 = load ptr, ptr %4, align 8, !tbaa !22
  %34 = load i64, ptr %2, align 8, !tbaa !24
  %35 = getelementptr inbounds nuw ptr, ptr %33, i64 %34
  store ptr %32, ptr %35, align 8, !tbaa !28
  %36 = load i64, ptr %2, align 8, !tbaa !24
  %37 = getelementptr inbounds nuw [27 x %struct.gennamedata], ptr @gennames, i64 0, i64 %36
  %38 = getelementptr inbounds nuw %struct.gennamedata, ptr %37, i32 0, i32 0
  %39 = getelementptr inbounds [22 x i8], ptr %38, i64 0, i64 0
  store ptr %39, ptr %7, align 8, !tbaa !16
  %40 = load i64, ptr %2, align 8, !tbaa !24
  %41 = getelementptr inbounds nuw [27 x %struct.gennamedata], ptr @gennames, i64 0, i64 %40
  %42 = getelementptr inbounds nuw %struct.gennamedata, ptr %41, i32 0, i32 1
  %43 = load i64, ptr %42, align 8, !tbaa !26
  %44 = call ptr @d2i_GENERAL_NAME(ptr noundef null, ptr noundef %7, i64 noundef %43)
  %45 = load ptr, ptr %5, align 8, !tbaa !22
  %46 = load i64, ptr %2, align 8, !tbaa !24
  %47 = getelementptr inbounds nuw ptr, ptr %45, i64 %46
  store ptr %44, ptr %47, align 8, !tbaa !28
  %48 = load ptr, ptr %4, align 8, !tbaa !22
  %49 = load i64, ptr %2, align 8, !tbaa !24
  %50 = getelementptr inbounds nuw ptr, ptr %48, i64 %49
  %51 = load ptr, ptr %50, align 8, !tbaa !28
  %52 = call i32 @test_ptr(ptr noundef @.str.2, i32 noundef 681, ptr noundef @.str.114, ptr noundef %51)
  %53 = icmp ne i32 %52, 0
  br i1 %53, label %54, label %61

54:                                               ; preds = %23
  %55 = load ptr, ptr %5, align 8, !tbaa !22
  %56 = load i64, ptr %2, align 8, !tbaa !24
  %57 = getelementptr inbounds nuw ptr, ptr %55, i64 %56
  %58 = load ptr, ptr %57, align 8, !tbaa !28
  %59 = call i32 @test_ptr(ptr noundef @.str.2, i32 noundef 681, ptr noundef @.str.115, ptr noundef %58)
  %60 = icmp ne i32 %59, 0
  br i1 %60, label %62, label %61

61:                                               ; preds = %54, %23
  store i32 2, ptr %8, align 4
  br label %63

62:                                               ; preds = %54
  store i32 0, ptr %8, align 4
  br label %63

63:                                               ; preds = %61, %62
  call void @llvm.lifetime.end.p0(i64 8, ptr %7) #8
  %64 = load i32, ptr %8, align 4
  switch i32 %64, label %146 [
    i32 0, label %65
    i32 2, label %118
  ]

65:                                               ; preds = %63
  br label %66

66:                                               ; preds = %65
  %67 = load i64, ptr %2, align 8, !tbaa !24
  %68 = add i64 %67, 1
  store i64 %68, ptr %2, align 8, !tbaa !24
  br label %20, !llvm.loop !30

69:                                               ; preds = %20
  store i64 0, ptr %2, align 8, !tbaa !24
  br label %70

70:                                               ; preds = %114, %69
  %71 = load i64, ptr %2, align 8, !tbaa !24
  %72 = icmp ult i64 %71, 27
  br i1 %72, label %73, label %117

73:                                               ; preds = %70
  store i64 0, ptr %3, align 8, !tbaa !24
  br label %74

74:                                               ; preds = %110, %73
  %75 = load i64, ptr %3, align 8, !tbaa !24
  %76 = icmp ult i64 %75, 27
  br i1 %76, label %77, label %113

77:                                               ; preds = %74
  %78 = load i64, ptr %2, align 8, !tbaa !24
  %79 = load i64, ptr %3, align 8, !tbaa !24
  %80 = icmp eq i64 %78, %79
  br i1 %80, label %81, label %95

81:                                               ; preds = %77
  %82 = load ptr, ptr %4, align 8, !tbaa !22
  %83 = load i64, ptr %2, align 8, !tbaa !24
  %84 = getelementptr inbounds nuw ptr, ptr %82, i64 %83
  %85 = load ptr, ptr %84, align 8, !tbaa !28
  %86 = load ptr, ptr %5, align 8, !tbaa !22
  %87 = load i64, ptr %3, align 8, !tbaa !24
  %88 = getelementptr inbounds nuw ptr, ptr %86, i64 %87
  %89 = load ptr, ptr %88, align 8, !tbaa !28
  %90 = call i32 @GENERAL_NAME_cmp(ptr noundef %85, ptr noundef %89)
  %91 = call i32 @test_int_eq(ptr noundef @.str.2, i32 noundef 689, ptr noundef @.str.116, ptr noundef @.str.67, i32 noundef %90, i32 noundef 0)
  %92 = icmp ne i32 %91, 0
  br i1 %92, label %94, label %93

93:                                               ; preds = %81
  br label %118

94:                                               ; preds = %81
  br label %109

95:                                               ; preds = %77
  %96 = load ptr, ptr %4, align 8, !tbaa !22
  %97 = load i64, ptr %2, align 8, !tbaa !24
  %98 = getelementptr inbounds nuw ptr, ptr %96, i64 %97
  %99 = load ptr, ptr %98, align 8, !tbaa !28
  %100 = load ptr, ptr %5, align 8, !tbaa !22
  %101 = load i64, ptr %3, align 8, !tbaa !24
  %102 = getelementptr inbounds nuw ptr, ptr %100, i64 %101
  %103 = load ptr, ptr %102, align 8, !tbaa !28
  %104 = call i32 @GENERAL_NAME_cmp(ptr noundef %99, ptr noundef %103)
  %105 = call i32 @test_int_ne(ptr noundef @.str.2, i32 noundef 692, ptr noundef @.str.116, ptr noundef @.str.67, i32 noundef %104, i32 noundef 0)
  %106 = icmp ne i32 %105, 0
  br i1 %106, label %108, label %107

107:                                              ; preds = %95
  br label %118

108:                                              ; preds = %95
  br label %109

109:                                              ; preds = %108, %94
  br label %110

110:                                              ; preds = %109
  %111 = load i64, ptr %3, align 8, !tbaa !24
  %112 = add i64 %111, 1
  store i64 %112, ptr %3, align 8, !tbaa !24
  br label %74, !llvm.loop !31

113:                                              ; preds = %74
  br label %114

114:                                              ; preds = %113
  %115 = load i64, ptr %2, align 8, !tbaa !24
  %116 = add i64 %115, 1
  store i64 %116, ptr %2, align 8, !tbaa !24
  br label %70, !llvm.loop !32

117:                                              ; preds = %70
  store i32 1, ptr %6, align 4, !tbaa !4
  br label %118

118:                                              ; preds = %117, %63, %107, %93, %18
  store i64 0, ptr %2, align 8, !tbaa !24
  br label %119

119:                                              ; preds = %139, %118
  %120 = load i64, ptr %2, align 8, !tbaa !24
  %121 = icmp ult i64 %120, 27
  br i1 %121, label %122, label %142

122:                                              ; preds = %119
  %123 = load ptr, ptr %4, align 8, !tbaa !22
  %124 = icmp ne ptr %123, null
  br i1 %124, label %125, label %130

125:                                              ; preds = %122
  %126 = load ptr, ptr %4, align 8, !tbaa !22
  %127 = load i64, ptr %2, align 8, !tbaa !24
  %128 = getelementptr inbounds nuw ptr, ptr %126, i64 %127
  %129 = load ptr, ptr %128, align 8, !tbaa !28
  call void @GENERAL_NAME_free(ptr noundef %129)
  br label %130

130:                                              ; preds = %125, %122
  %131 = load ptr, ptr %5, align 8, !tbaa !22
  %132 = icmp ne ptr %131, null
  br i1 %132, label %133, label %138

133:                                              ; preds = %130
  %134 = load ptr, ptr %5, align 8, !tbaa !22
  %135 = load i64, ptr %2, align 8, !tbaa !24
  %136 = getelementptr inbounds nuw ptr, ptr %134, i64 %135
  %137 = load ptr, ptr %136, align 8, !tbaa !28
  call void @GENERAL_NAME_free(ptr noundef %137)
  br label %138

138:                                              ; preds = %133, %130
  br label %139

139:                                              ; preds = %138
  %140 = load i64, ptr %2, align 8, !tbaa !24
  %141 = add i64 %140, 1
  store i64 %141, ptr %2, align 8, !tbaa !24
  br label %119, !llvm.loop !33

142:                                              ; preds = %119
  %143 = load ptr, ptr %4, align 8, !tbaa !22
  call void @CRYPTO_free(ptr noundef %143, ptr noundef @.str.2, i32 noundef 706)
  %144 = load ptr, ptr %5, align 8, !tbaa !22
  call void @CRYPTO_free(ptr noundef %144, ptr noundef @.str.2, i32 noundef 707)
  %145 = load i32, ptr %6, align 4, !tbaa !4
  store i32 %145, ptr %1, align 4
  store i32 1, ptr %8, align 4
  br label %146

146:                                              ; preds = %142, %63
  call void @llvm.lifetime.end.p0(i64 4, ptr %6) #8
  call void @llvm.lifetime.end.p0(i64 8, ptr %5) #8
  call void @llvm.lifetime.end.p0(i64 8, ptr %4) #8
  call void @llvm.lifetime.end.p0(i64 8, ptr %3) #8
  call void @llvm.lifetime.end.p0(i64 8, ptr %2) #8
  %147 = load i32, ptr %1, align 4
  ret i32 %147
}