; Function Attrs: nounwind uwtable
define internal range(i32 0, 2) i32 @test_GENERAL_NAME_cmp() #0 {
  %1 = alloca ptr, align 8
  %2 = tail call noalias ptr @CRYPTO_malloc(i64 noundef 216, ptr noundef nonnull @.str.2, i32 noundef 663) #7
  %3 = tail call noalias ptr @CRYPTO_malloc(i64 noundef 216, ptr noundef nonnull @.str.2, i32 noundef 665) #7
  %.fr = freeze ptr %3
  %4 = tail call i32 @test_ptr(ptr noundef nonnull @.str.2, i32 noundef 668, ptr noundef nonnull @.str.112, ptr noundef %2) #7
  %.not = icmp eq i32 %4, 0
  br i1 %.not, label %.loopexit, label %5

5:                                                ; preds = %0
  %6 = tail call i32 @test_ptr(ptr noundef nonnull @.str.2, i32 noundef 668, ptr noundef nonnull @.str.113, ptr noundef %.fr) #7
  %.not48 = icmp eq i32 %6, 0
  br i1 %.not48, label %.loopexit, label %.preheader60

.preheader60:                                     ; preds = %5, %20
  %.04461 = phi i64 [ %21, %20 ], [ 0, %5 ]
  call void @llvm.lifetime.start.p0(i64 8, ptr nonnull %1) #7
  %7 = getelementptr inbounds nuw [27 x %struct.gennamedata], ptr @gennames, i64 0, i64 %.04461
  store ptr %7, ptr %1, align 8, !tbaa !13
  %8 = getelementptr inbounds nuw i8, ptr %7, i64 24
  %9 = load i64, ptr %8, align 8, !tbaa !19
  %10 = call ptr @d2i_GENERAL_NAME(ptr noundef null, ptr noundef nonnull %1, i64 noundef %9) #7
  %11 = getelementptr inbounds nuw ptr, ptr %2, i64 %.04461
  store ptr %10, ptr %11, align 8, !tbaa !22
  store ptr %7, ptr %1, align 8, !tbaa !13
  %12 = load i64, ptr %8, align 8, !tbaa !19
  %13 = call ptr @d2i_GENERAL_NAME(ptr noundef null, ptr noundef nonnull %1, i64 noundef %12) #7
  %14 = getelementptr inbounds nuw ptr, ptr %.fr, i64 %.04461
  store ptr %13, ptr %14, align 8, !tbaa !22
  %15 = load ptr, ptr %11, align 8, !tbaa !22
  %16 = call i32 @test_ptr(ptr noundef nonnull @.str.2, i32 noundef 681, ptr noundef nonnull @.str.114, ptr noundef %15) #7
  %.not51 = icmp eq i32 %16, 0
  br i1 %.not51, label %.thread, label %17

17:                                               ; preds = %.preheader60
  %18 = load ptr, ptr %14, align 8, !tbaa !22
  %19 = call i32 @test_ptr(ptr noundef nonnull @.str.2, i32 noundef 681, ptr noundef nonnull @.str.115, ptr noundef %18) #7
  %.not52 = icmp eq i32 %19, 0
  br i1 %.not52, label %.thread, label %20

.thread:                                          ; preds = %.preheader60, %17
  call void @llvm.lifetime.end.p0(i64 8, ptr nonnull %1) #7
  br label %.split.split.preheader

20:                                               ; preds = %17
  call void @llvm.lifetime.end.p0(i64 8, ptr nonnull %1) #7
  %21 = add nuw nsw i64 %.04461, 1
  %exitcond.not = icmp eq i64 %21, 27
  br i1 %exitcond.not, label %.preheader, label %.preheader60, !llvm.loop !24

.preheader:                                       ; preds = %20, %38
  %.163 = phi i64 [ %39, %38 ], [ 0, %20 ]
  %22 = getelementptr inbounds nuw ptr, ptr %2, i64 %.163
  %23 = getelementptr inbounds nuw ptr, ptr %.fr, i64 %.163
  br label %24

24:                                               ; preds = %.preheader, %36
  %.04562 = phi i64 [ 0, %.preheader ], [ %37, %36 ]
  %25 = icmp eq i64 %.163, %.04562
  %26 = load ptr, ptr %22, align 8, !tbaa !22
  br i1 %25, label %27, label %31

27:                                               ; preds = %24
  %28 = load ptr, ptr %23, align 8, !tbaa !22
  %29 = call i32 @GENERAL_NAME_cmp(ptr noundef %26, ptr noundef %28) #7
  %30 = call i32 @test_int_eq(ptr noundef nonnull @.str.2, i32 noundef 689, ptr noundef nonnull @.str.116, ptr noundef nonnull @.str.67, i32 noundef %29, i32 noundef 0) #7
  %.not50 = icmp eq i32 %30, 0
  br i1 %.not50, label %.split.split.preheader, label %36

31:                                               ; preds = %24
  %32 = getelementptr inbounds nuw ptr, ptr %.fr, i64 %.04562
  %33 = load ptr, ptr %32, align 8, !tbaa !22
  %34 = call i32 @GENERAL_NAME_cmp(ptr noundef %26, ptr noundef %33) #7
  %35 = call i32 @test_int_ne(ptr noundef nonnull @.str.2, i32 noundef 692, ptr noundef nonnull @.str.116, ptr noundef nonnull @.str.67, i32 noundef %34, i32 noundef 0) #7
  %.not49 = icmp eq i32 %35, 0
  br i1 %.not49, label %.split.split.preheader, label %36

36:                                               ; preds = %27, %31
  %37 = add nuw nsw i64 %.04562, 1
  %exitcond72.not = icmp eq i64 %37, 27
  br i1 %exitcond72.not, label %38, label %24, !llvm.loop !25

38:                                               ; preds = %36
  %39 = add nuw nsw i64 %.163, 1
  %exitcond73.not = icmp eq i64 %39, 27
  br i1 %exitcond73.not, label %.split.split.preheader, label %.preheader, !llvm.loop !26

.loopexit:                                        ; preds = %0, %5
  %.not53 = icmp eq ptr %2, null
  %.not54 = icmp eq ptr %.fr, null
  br i1 %.not53, label %.split.us, label %.split

.split.us:                                        ; preds = %.loopexit
  br i1 %.not54, label %.split66.us, label %.split.us.split

.split.us.split:                                  ; preds = %.split.us, %.split.us.split
  %.264.us = phi i64 [ %42, %.split.us.split ], [ 0, %.split.us ]
  %40 = getelementptr inbounds nuw ptr, ptr %.fr, i64 %.264.us
  %41 = load ptr, ptr %40, align 8, !tbaa !22
  tail call void @GENERAL_NAME_free(ptr noundef %41) #7
  %42 = add nuw nsw i64 %.264.us, 1
  %exitcond76.not = icmp eq i64 %42, 27
  br i1 %exitcond76.not, label %.split66.us, label %.split.us.split, !llvm.loop !27

.split:                                           ; preds = %.loopexit
  br i1 %.not54, label %.split.split.us, label %.split.split.preheader

.split.split.preheader:                           ; preds = %38, %27, %31, %.thread, %.split
  %.0428183 = phi i32 [ 0, %.split ], [ 0, %.thread ], [ 0, %31 ], [ 0, %27 ], [ 1, %38 ]
  br label %.split.split

.split.split.us:                                  ; preds = %.split, %.split.split.us
  %.264.us67 = phi i64 [ %45, %.split.split.us ], [ 0, %.split ]
  %43 = getelementptr inbounds nuw ptr, ptr %2, i64 %.264.us67
  %44 = load ptr, ptr %43, align 8, !tbaa !22
  tail call void @GENERAL_NAME_free(ptr noundef %44) #7
  %45 = add nuw nsw i64 %.264.us67, 1
  %exitcond75.not = icmp eq i64 %45, 27
  br i1 %exitcond75.not, label %.split66.us, label %.split.split.us, !llvm.loop !27

.split.split:                                     ; preds = %.split.split.preheader, %.split.split
  %.264 = phi i64 [ %50, %.split.split ], [ 0, %.split.split.preheader ]
  %46 = getelementptr inbounds nuw ptr, ptr %2, i64 %.264
  %47 = load ptr, ptr %46, align 8, !tbaa !22
  call void @GENERAL_NAME_free(ptr noundef %47) #7
  %48 = getelementptr inbounds nuw ptr, ptr %.fr, i64 %.264
  %49 = load ptr, ptr %48, align 8, !tbaa !22
  call void @GENERAL_NAME_free(ptr noundef %49) #7
  %50 = add nuw nsw i64 %.264, 1
  %exitcond74.not = icmp eq i64 %50, 27
  br i1 %exitcond74.not, label %.split66.us, label %.split.split, !llvm.loop !27

.split66.us:                                      ; preds = %.split.split, %.split.split.us, %.split.us.split, %.split.us
  %.04280 = phi i32 [ 0, %.split.us ], [ 0, %.split.us.split ], [ 0, %.split.split.us ], [ %.0428183, %.split.split ]
  call void @CRYPTO_free(ptr noundef %2, ptr noundef nonnull @.str.2, i32 noundef 706) #7
  call void @CRYPTO_free(ptr noundef %.fr, ptr noundef nonnull @.str.2, i32 noundef 707) #7
  ret i32 %.04280
}